target datalayout = "e-m:e-p270:32:32-p271:32:32-p272:64:64-i64:64-i128:128-f80:128-n8:16:32:64-S128"
target triple = "x86_64-pc-linux-gnu"

%struct._packet_info = type { ptr, ptr, i32, i32, %struct.nstime_t, %struct.nstime_t, %struct.nstime_t, i8, ptr, ptr, ptr, ptr, %struct._address, %struct._address, %struct._address, %struct._address, %struct._address, %struct._address, i32, ptr, i8, [3 x i8], %struct.anon, i32, i32, i32, i32, ptr, i8, ptr, ptr, i16, i16, i32, i32, i16, i32, i32, ptr, ptr, ptr, i8, i8, i16, i16, i16, i32, i16, i16, ptr, ptr, ptr, ptr, ptr, i32, i32 }
%struct.nstime_t = type { i64, i32 }
%struct._address = type { i32, i32, ptr, ptr }
%struct.anon = type { i8, [3 x i8] }

@hf_tcpros_connection_header = internal global i32 0, align 4
@hf_tcpros_connection_header_length = internal global i32 0, align 4
@hf_tcpros_connection_header_content = internal global i32 0, align 4
@hf_tcpros_connection_header_field = internal global i32 0, align 4
@hf_tcpros_connection_header_field_length = internal global i32 0, align 4
@hf_tcpros_connection_header_field_data = internal global i32 0, align 4
@hf_tcpros_connection_header_field_name = internal global i32 0, align 4
@hf_tcpros_connection_header_field_value = internal global i32 0, align 4
@ett_tcpros = internal global i32 0, align 4
@.str.80 = private unnamed_addr constant [23 x i8] c"[ROS Conn] Metadata: [\00", align 1
@.str.81 = private unnamed_addr constant [2 x i8] c",\00", align 1
@.str.82 = private unnamed_addr constant [2 x i8] c"]\00", align 1

; Function Attrs: null_pointer_is_valid sspstrong uwtable
define internal i32 @dissect_ros_connection_header_field(ptr noundef %0, ptr noundef %1, ptr noundef %2, i32 noundef %3) #0 {
  %5 = alloca ptr, align 8
  %6 = alloca ptr, align 8
  %7 = alloca ptr, align 8
  %8 = alloca i32, align 4
  %9 = alloca ptr, align 8
  %10 = alloca ptr, align 8
  %11 = alloca i32, align 4
  %12 = alloca i32, align 4
  %13 = alloca i32, align 4
  %14 = alloca ptr, align 8
  store ptr %0, ptr %5, align 8
  store ptr %1, ptr %6, align 8
  store ptr %2, ptr %7, align 8
  store i32 %3, ptr %8, align 4
  call void @llvm.lifetime.start.p0(i64 8, ptr %9) #3
  call void @llvm.lifetime.start.p0(i64 8, ptr %10) #3
  call void @llvm.lifetime.start.p0(i64 4, ptr %11) #3
  store i32 0, ptr %11, align 4
  call void @llvm.lifetime.start.p0(i64 4, ptr %12) #3
  call void @llvm.lifetime.start.p0(i64 4, ptr %13) #3
  store i32 0, ptr %13, align 4
  %15 = load ptr, ptr %5, align 8
  %16 = load i32, ptr %8, align 4
  %17 = call i32 @tvb_reported_length_remaining(ptr noundef %15, i32 noundef %16)
  %18 = icmp sgt i32 %17, 4
  br i1 %18, label %19, label %84

19:                                               ; preds = %4
  %20 = load ptr, ptr %5, align 8
  %21 = load i32, ptr %8, align 4
  %22 = call i32 @tvb_get_letohl(ptr noundef %20, i32 noundef %21)
  store i32 %22, ptr %11, align 4
  %23 = load ptr, ptr %6, align 8
  %24 = load i32, ptr @hf_tcpros_connection_header_field, align 4
  %25 = load ptr, ptr %5, align 8
  %26 = load i32, ptr %8, align 4
  %27 = call ptr @proto_tree_add_item(ptr noundef %23, i32 noundef %24, ptr noundef %25, i32 noundef %26, i32 noundef 4, i32 noundef -2147483646)
  store ptr %27, ptr %9, align 8
  %28 = load ptr, ptr %9, align 8
  %29 = load i32, ptr @ett_tcpros, align 4
  %30 = call ptr @proto_item_add_subtree(ptr noundef %28, i32 noundef %29)
  store ptr %30, ptr %10, align 8
  %31 = load ptr, ptr %10, align 8
  %32 = load i32, ptr @hf_tcpros_connection_header_field_length, align 4
  %33 = load ptr, ptr %5, align 8
  %34 = load i32, ptr %8, align 4
  %35 = call ptr @proto_tree_add_item(ptr noundef %31, i32 noundef %32, ptr noundef %33, i32 noundef %34, i32 noundef 4, i32 noundef -2147483648)
  %36 = load i32, ptr %8, align 4
  %37 = add i32 %36, 4
  store i32 %37, ptr %8, align 4
  %38 = load ptr, ptr %10, align 8
  %39 = load i32, ptr @hf_tcpros_connection_header_field_data, align 4
  %40 = load ptr, ptr %5, align 8
  %41 = load i32, ptr %8, align 4
  %42 = load i32, ptr %11, align 4
  %43 = call ptr @proto_tree_add_item(ptr noundef %38, i32 noundef %39, ptr noundef %40, i32 noundef %41, i32 noundef %42, i32 noundef 2)
  store ptr %43, ptr %9, align 8
  %44 = load ptr, ptr %5, align 8
  %45 = load i32, ptr %8, align 4
  %46 = load i32, ptr %11, align 4
  %47 = call i32 @tvb_find_uint8(ptr noundef %44, i32 noundef %45, i32 noundef %46, i8 noundef zeroext 61)
  %48 = load i32, ptr %8, align 4
  %49 = sub i32 %47, %48
  store i32 %49, ptr %12, align 4
  %50 = load i32, ptr %12, align 4
  %51 = icmp sgt i32 %50, 0
  br i1 %51, label %52, label %81

52:                                               ; preds = %19
  call void @llvm.lifetime.start.p0(i64 8, ptr %14) #3
  %53 = load ptr, ptr %9, align 8
  %54 = load i32, ptr @ett_tcpros, align 4
  %55 = call ptr @proto_item_add_subtree(ptr noundef %53, i32 noundef %54)
  store ptr %55, ptr %10, align 8
  %56 = load ptr, ptr %10, align 8
  %57 = load i32, ptr @hf_tcpros_connection_header_field_name, align 4
  %58 = load ptr, ptr %5, align 8
  %59 = load i32, ptr %8, align 4
  %60 = load i32, ptr %12, align 4
  %61 = load ptr, ptr %7, align 8
  %62 = getelementptr inbounds nuw %struct._packet_info, ptr %61, i32 0, i32 51
  %63 = load ptr, ptr %62, align 8
  %64 = call ptr @proto_tree_add_item_ret_string(ptr noundef %56, i32 noundef %57, ptr noundef %58, i32 noundef %59, i32 noundef %60, i32 noundef 2, ptr noundef %63, ptr noundef %14)
  %65 = load ptr, ptr %10, align 8
  %66 = load i32, ptr @hf_tcpros_connection_header_field_value, align 4
  %67 = load ptr, ptr %5, align 8
  %68 = load i32, ptr %8, align 4
  %69 = load i32, ptr %12, align 4
  %70 = add i32 %68, %69
  %71 = add i32 %70, 1
  %72 = load i32, ptr %11, align 4
  %73 = load i32, ptr %12, align 4
  %74 = sub i32 %72, %73
  %75 = sub i32 %74, 1
  %76 = call ptr @proto_tree_add_item(ptr noundef %65, i32 noundef %66, ptr noundef %67, i32 noundef %71, i32 noundef %75, i32 noundef 2)
  %77 = load ptr, ptr %7, align 8
  %78 = getelementptr inbounds nuw %struct._packet_info, ptr %77, i32 0, i32 1
  %79 = load ptr, ptr %78, align 8
  %80 = load ptr, ptr %14, align 8
  call void @col_append_str(ptr noundef %79, i32 noundef 25, ptr noundef %80)
  call void @llvm.lifetime.end.p0(i64 8, ptr %14) #3
  br label %81

81:                                               ; preds = %52, %19
  %82 = load i32, ptr %11, align 4
  %83 = add i32 %82, 4
  store i32 %83, ptr %13, align 4
  br label %84

84:                                               ; preds = %81, %4
  %85 = load i32, ptr %13, align 4
  call void @llvm.lifetime.end.p0(i64 4, ptr %13) #3
  call void @llvm.lifetime.end.p0(i64 4, ptr %12) #3
  call void @llvm.lifetime.end.p0(i64 4, ptr %11) #3
  call void @llvm.lifetime.end.p0(i64 8, ptr %10) #3
  call void @llvm.lifetime.end.p0(i64 8, ptr %9) #3
  ret i32 %85
}

; Function Attrs: null_pointer_is_valid sspstrong uwtable
define internal i32 @dissect_ros_connection_header(ptr noundef %0, ptr noundef %1, ptr noundef %2, i32 noundef %3) #0 {
  %5 = alloca ptr, align 8
  %6 = alloca ptr, align 8
  %7 = alloca ptr, align 8
  %8 = alloca i32, align 4
  %9 = alloca ptr, align 8
  %10 = alloca ptr, align 8
  %11 = alloca i32, align 4
  %12 = alloca i32, align 4
  %13 = alloca i32, align 4
  %14 = alloca i32, align 4
  store ptr %0, ptr %5, align 8
  store ptr %1, ptr %6, align 8
  store ptr %2, ptr %7, align 8
  store i32 %3, ptr %8, align 4
  call void @llvm.lifetime.start.p0(i64 8, ptr %9) #3
  call void @llvm.lifetime.start.p0(i64 8, ptr %10) #3
  call void @llvm.lifetime.start.p0(i64 4, ptr %11) #3
  store i32 0, ptr %11, align 4
  call void @llvm.lifetime.start.p0(i64 4, ptr %12) #3
  %15 = load ptr, ptr %5, align 8
  %16 = load i32, ptr %8, align 4
  %17 = call i32 @tvb_get_letohl(ptr noundef %15, i32 noundef %16)
  store i32 %17, ptr %12, align 4
  %18 = load ptr, ptr %7, align 8
  %19 = getelementptr inbounds nuw %struct._packet_info, ptr %18, i32 0, i32 1
  %20 = load ptr, ptr %19, align 8
  call void @col_append_str(ptr noundef %20, i32 noundef 25, ptr noundef @.str.80)
  %21 = load ptr, ptr %6, align 8
  %22 = load i32, ptr @hf_tcpros_connection_header, align 4
  %23 = load ptr, ptr %5, align 8
  %24 = load i32, ptr %8, align 4
  %25 = call ptr @proto_tree_add_item(ptr noundef %21, i32 noundef %22, ptr noundef %23, i32 noundef %24, i32 noundef 4, i32 noundef -2147483648)
  store ptr %25, ptr %9, align 8
  %26 = load ptr, ptr %9, align 8
  %27 = load i32, ptr @ett_tcpros, align 4
  %28 = call ptr @proto_item_add_subtree(ptr noundef %26, i32 noundef %27)
  store ptr %28, ptr %10, align 8
  %29 = load ptr, ptr %10, align 8
  %30 = load i32, ptr @hf_tcpros_connection_header_length, align 4
  %31 = load ptr, ptr %5, align 8
  %32 = load i32, ptr %8, align 4
  %33 = load i32, ptr %11, align 4
  %34 = add i32 %32, %33
  %35 = call ptr @proto_tree_add_item(ptr noundef %29, i32 noundef %30, ptr noundef %31, i32 noundef %34, i32 noundef 4, i32 noundef -2147483648)
  %36 = load i32, ptr %11, align 4
  %37 = add i32 %36, 4
  store i32 %37, ptr %11, align 4
  %38 = load ptr, ptr %10, align 8
  %39 = load i32, ptr @hf_tcpros_connection_header_content, align 4
  %40 = load ptr, ptr %5, align 8
  %41 = load i32, ptr %8, align 4
  %42 = load i32, ptr %11, align 4
  %43 = add i32 %41, %42
  %44 = load i32, ptr %12, align 4
  %45 = call ptr @proto_tree_add_item(ptr noundef %38, i32 noundef %39, ptr noundef %40, i32 noundef %43, i32 noundef %44, i32 noundef 0)
  store ptr %45, ptr %9, align 8
  %46 = load ptr, ptr %9, align 8
  %47 = load i32, ptr @ett_tcpros, align 4
  %48 = call ptr @proto_item_add_subtree(ptr noundef %46, i32 noundef %47)
  store ptr %48, ptr %10, align 8
  %49 = load i32, ptr %12, align 4
  %50 = add i32 %49, 4
  store i32 %50, ptr %12, align 4
  br label %51

51:                                               ; preds = %80, %4
  %52 = load i32, ptr %11, align 4
  %53 = load i32, ptr %12, align 4
  %54 = icmp slt i32 %52, %53
  br i1 %54, label %55, label %81

55:                                               ; preds = %51
  call void @llvm.lifetime.start.p0(i64 4, ptr %13) #3
  %56 = load ptr, ptr %5, align 8
  %57 = load ptr, ptr %10, align 8
  %58 = load ptr, ptr %7, align 8
  %59 = load i32, ptr %8, align 4
  %60 = load i32, ptr %11, align 4
  %61 = add i32 %59, %60
  %62 = call i32 @dissect_ros_connection_header_field(ptr noundef %56, ptr noundef %57, ptr noundef %58, i32 noundef %61)
  store i32 %62, ptr %13, align 4
  %63 = load i32, ptr %13, align 4
  %64 = load i32, ptr %11, align 4
  %65 = add i32 %64, %63
  store i32 %65, ptr %11, align 4
  %66 = load i32, ptr %13, align 4
  %67 = icmp eq i32 %66, 0
  br i1 %67, label %68, label %69

68:                                               ; preds = %55
  store i32 3, ptr %14, align 4
  br label %78

69:                                               ; preds = %55
  %70 = load i32, ptr %11, align 4
  %71 = load i32, ptr %12, align 4
  %72 = icmp slt i32 %70, %71
  br i1 %72, label %73, label %77

73:                                               ; preds = %69
  %74 = load ptr, ptr %7, align 8
  %75 = getelementptr inbounds nuw %struct._packet_info, ptr %74, i32 0, i32 1
  %76 = load ptr, ptr %75, align 8
  call void @col_append_str(ptr noundef %76, i32 noundef 25, ptr noundef @.str.81)
  br label %77

77:                                               ; preds = %73, %69
  store i32 0, ptr %14, align 4
  br label %78

78:                                               ; preds = %77, %68
  call void @llvm.lifetime.end.p0(i64 4, ptr %13) #3
  %79 = load i32, ptr %14, align 4
  switch i32 %79, label %86 [
    i32 0, label %80
    i32 3, label %81
  ]

80:                                               ; preds = %78
  br label %51, !llvm.loop !10

81:                                               ; preds = %78, %51
  %82 = load ptr, ptr %7, align 8
  %83 = getelementptr inbounds nuw %struct._packet_info, ptr %82, i32 0, i32 1
  %84 = load ptr, ptr %83, align 8
  call void @col_append_str(ptr noundef %84, i32 noundef 25, ptr noundef @.str.82)
  %85 = load i32, ptr %11, align 4
  store i32 1, ptr %14, align 4
  call void @llvm.lifetime.end.p0(i64 4, ptr %12) #3
  call void @llvm.lifetime.end.p0(i64 4, ptr %11) #3
  call void @llvm.lifetime.end.p0(i64 8, ptr %10) #3
  call void @llvm.lifetime.end.p0(i64 8, ptr %9) #3
  ret i32 %85

86:                                               ; preds = %78
  unreachable
}