; Function Attrs: null_pointer_is_valid sspstrong uwtable
define internal fastcc i32 @dissect_ros_connection_header(ptr noundef %0, ptr noundef %1, ptr noundef readonly captures(none) %2, i32 noundef %3) unnamed_addr #0 {
  %5 = alloca ptr, align 8
  %6 = tail call i32 @tvb_get_letohl(ptr noundef %0, i32 noundef %3)
  %7 = getelementptr inbounds nuw i8, ptr %2, i64 8
  %8 = load ptr, ptr %7, align 8
  tail call void @col_append_str(ptr noundef %8, i32 noundef 25, ptr noundef nonnull @.str.80)
  %9 = load i32, ptr @hf_tcpros_connection_header, align 4
  %10 = tail call ptr @proto_tree_add_item(ptr noundef %1, i32 noundef %9, ptr noundef %0, i32 noundef %3, i32 noundef 4, i32 noundef -2147483648)
  %11 = load i32, ptr @ett_tcpros, align 4
  %12 = tail call ptr @proto_item_add_subtree(ptr noundef %10, i32 noundef %11)
  %13 = load i32, ptr @hf_tcpros_connection_header_length, align 4
  %14 = tail call ptr @proto_tree_add_item(ptr noundef %12, i32 noundef %13, ptr noundef %0, i32 noundef %3, i32 noundef 4, i32 noundef -2147483648)
  %15 = load i32, ptr @hf_tcpros_connection_header_content, align 4
  %16 = add i32 %3, 4
  %17 = tail call ptr @proto_tree_add_item(ptr noundef %12, i32 noundef %15, ptr noundef %0, i32 noundef %16, i32 noundef %6, i32 noundef 0)
  %18 = load i32, ptr @ett_tcpros, align 4
  %19 = tail call ptr @proto_item_add_subtree(ptr noundef %17, i32 noundef %18)
  %20 = add i32 %6, 4
  %21 = icmp sgt i32 %20, 4
  br i1 %21, label %.lr.ph, label %.thread

.lr.ph:                                           ; preds = %4
  %22 = getelementptr inbounds nuw i8, ptr %2, i64 408
  %23 = add i32 %3, 4
  %24 = tail call i32 @tvb_reported_length_remaining(ptr noundef %0, i32 noundef %23)
  %25 = icmp sgt i32 %24, 4
  br i1 %25, label %.lr.ph45, label %.thread

.lr.ph45:                                         ; preds = %.lr.ph, %57
  %26 = phi i32 [ %59, %57 ], [ %23, %.lr.ph ]
  %.0343944 = phi i32 [ %54, %57 ], [ 4, %.lr.ph ]
  %27 = call i32 @tvb_get_letohl(ptr noundef %0, i32 noundef %26)
  %28 = load i32, ptr @hf_tcpros_connection_header_field, align 4
  %29 = call ptr @proto_tree_add_item(ptr noundef %19, i32 noundef %28, ptr noundef %0, i32 noundef %26, i32 noundef 4, i32 noundef -2147483646)
  %30 = load i32, ptr @ett_tcpros, align 4
  %31 = call ptr @proto_item_add_subtree(ptr noundef %29, i32 noundef %30)
  %32 = load i32, ptr @hf_tcpros_connection_header_field_length, align 4
  %33 = call ptr @proto_tree_add_item(ptr noundef %31, i32 noundef %32, ptr noundef %0, i32 noundef %26, i32 noundef 4, i32 noundef -2147483648)
  %34 = add i32 %26, 4
  %35 = load i32, ptr @hf_tcpros_connection_header_field_data, align 4
  %36 = call ptr @proto_tree_add_item(ptr noundef %31, i32 noundef %35, ptr noundef %0, i32 noundef %34, i32 noundef %27, i32 noundef 2)
  %37 = call i32 @tvb_find_uint8(ptr noundef %0, i32 noundef %34, i32 noundef %27, i8 noundef zeroext 61)
  %38 = sub i32 %37, %34
  %39 = icmp sgt i32 %38, 0
  br i1 %39, label %40, label %dissect_ros_connection_header_field.exit

40:                                               ; preds = %.lr.ph45
  call void @llvm.lifetime.start.p0(i64 8, ptr nonnull %5) #3
  %41 = load i32, ptr @ett_tcpros, align 4
  %42 = call ptr @proto_item_add_subtree(ptr noundef %36, i32 noundef %41)
  %43 = load i32, ptr @hf_tcpros_connection_header_field_name, align 4
  %44 = load ptr, ptr %22, align 8
  %45 = call ptr @proto_tree_add_item_ret_string(ptr noundef %42, i32 noundef %43, ptr noundef %0, i32 noundef %34, i32 noundef %38, i32 noundef 2, ptr noundef %44, ptr noundef nonnull %5)
  %46 = load i32, ptr @hf_tcpros_connection_header_field_value, align 4
  %47 = add i32 %37, 1
  %48 = xor i32 %38, -1
  %49 = add i32 %27, %48
  %50 = call ptr @proto_tree_add_item(ptr noundef %42, i32 noundef %46, ptr noundef %0, i32 noundef %47, i32 noundef %49, i32 noundef 2)
  %51 = load ptr, ptr %7, align 8
  %52 = load ptr, ptr %5, align 8
  call void @col_append_str(ptr noundef %51, i32 noundef 25, ptr noundef %52)
  call void @llvm.lifetime.end.p0(i64 8, ptr nonnull %5) #3
  br label %dissect_ros_connection_header_field.exit

dissect_ros_connection_header_field.exit:         ; preds = %.lr.ph45, %40
  %53 = add i32 %27, 4
  %54 = add i32 %53, %.0343944
  %55 = icmp ne i32 %53, 0
  %56 = icmp slt i32 %54, %20
  %or.cond = and i1 %55, %56
  br i1 %or.cond, label %57, label %.thread

57:                                               ; preds = %dissect_ros_connection_header_field.exit
  %58 = load ptr, ptr %7, align 8
  call void @col_append_str(ptr noundef %58, i32 noundef 25, ptr noundef nonnull @.str.81)
  %59 = add i32 %54, %3
  %60 = call i32 @tvb_reported_length_remaining(ptr noundef %0, i32 noundef %59)
  %61 = icmp sgt i32 %60, 4
  br i1 %61, label %.lr.ph45, label %.thread

.thread:                                          ; preds = %57, %dissect_ros_connection_header_field.exit, %.lr.ph, %4
  %.1 = phi i32 [ 4, %4 ], [ 4, %.lr.ph ], [ %54, %dissect_ros_connection_header_field.exit ], [ %54, %57 ]
  %62 = load ptr, ptr %7, align 8
  call void @col_append_str(ptr noundef %62, i32 noundef 25, ptr noundef nonnull @.str.82)
  ret i32 %.1
}